target datalayout = "e-m:e-p270:32:32-p271:32:32-p272:64:64-i64:64-i128:128-f80:128-n8:16:32:64-S128"
target triple = "x86_64-pc-linux-gnu"

%"struct.faiss::Index.base" = type <{ ptr, i32, [4 x i8], i64, i8, i8, [2 x i8], i32, float }>
%"struct.faiss::ScalarQuantizer" = type { %"struct.faiss::Quantizer", i32, i32, float, i64, %"class.std::vector.0" }
%"struct.faiss::Quantizer" = type { ptr, i64, i64 }
%"class.std::vector.0" = type { %"struct.std::_Vector_base.1" }
%"struct.std::_Vector_base.1" = type { %"struct.std::_Vector_base<float, std::allocator<float>>::_Vector_impl" }
%"struct.std::_Vector_base<float, std::allocator<float>>::_Vector_impl" = type { %"struct.std::_Vector_base<float, std::allocator<float>>::_Vector_impl_data" }
%"struct.std::_Vector_base<float, std::allocator<float>>::_Vector_impl_data" = type { ptr, ptr, ptr }
%"struct.faiss::Index" = type <{ ptr, i32, [4 x i8], i64, i8, i8, [2 x i8], i32, float, [4 x i8] }>
%"struct.faiss::IndexIVFScalarQuantizer" = type { %"struct.faiss::IndexIVF.base", %"struct.faiss::ScalarQuantizer" }
%"struct.faiss::IndexIVF.base" = type <{ %"struct.faiss::Index.base", [4 x i8], %"struct.faiss::IndexIVFInterface", ptr, i8, [7 x i8], i64, i32, i32, %"struct.faiss::DirectMap", i8 }>
%"struct.faiss::IndexIVFInterface" = type { ptr, %"struct.faiss::Level1Quantizer", i64, i64 }
%"struct.faiss::Level1Quantizer" = type { ptr, i64, i8, i8, %"struct.faiss::ClusteringParameters", ptr }
%"struct.faiss::ClusteringParameters" = type { i32, i32, i8, i8, i8, i8, i8, i32, i32, i32, i64 }
%"struct.faiss::DirectMap" = type { i32, %"class.std::vector.10", %"class.std::unordered_map" }
%"class.std::vector.10" = type { %"struct.std::_Vector_base.11" }
%"struct.std::_Vector_base.11" = type { %"struct.std::_Vector_base<long, std::allocator<long>>::_Vector_impl" }
%"struct.std::_Vector_base<long, std::allocator<long>>::_Vector_impl" = type { %"struct.std::_Vector_base<long, std::allocator<long>>::_Vector_impl_data" }
%"struct.std::_Vector_base<long, std::allocator<long>>::_Vector_impl_data" = type { ptr, ptr, ptr }
%"class.std::unordered_map" = type { %"class.std::_Hashtable" }
%"class.std::_Hashtable" = type { ptr, i64, %"struct.std::__detail::_Hash_node_base", i64, %"struct.std::__detail::_Prime_rehash_policy", ptr }
%"struct.std::__detail::_Hash_node_base" = type { ptr }
%"struct.std::__detail::_Prime_rehash_policy" = type { float, i64 }
%"struct.faiss::IndexIVF" = type <{ %"struct.faiss::Index.base", [4 x i8], %"struct.faiss::IndexIVFInterface", ptr, i8, [7 x i8], i64, i32, i32, %"struct.faiss::DirectMap", i8, [7 x i8] }>
%"struct.faiss::InvertedLists" = type <{ ptr, i64, i64, i8, [7 x i8] }>

; Function Attrs: mustprogress uwtable
define void @_ZN5faiss23IndexIVFScalarQuantizerC2EPNS_5IndexEmmNS_15ScalarQuantizer13QuantizerTypeENS_10MetricTypeEb(ptr noundef nonnull align 8 dereferenceable(336) %0, ptr noundef %1, i64 noundef %2, i64 noundef %3, i32 noundef %4, i32 noundef %5, i1 noundef zeroext %6) unnamed_addr #1 align 2 personality ptr @__gxx_personality_v0 {
  %8 = alloca ptr, align 8
  %9 = alloca ptr, align 8
  %10 = alloca i64, align 8
  %11 = alloca i64, align 8
  %12 = alloca i32, align 4
  %13 = alloca i32, align 4
  %14 = alloca i8, align 1
  %15 = alloca ptr, align 8
  %16 = alloca i32, align 4
  store ptr %0, ptr %8, align 8
  store ptr %1, ptr %9, align 8
  store i64 %2, ptr %10, align 8
  store i64 %3, ptr %11, align 8
  store i32 %4, ptr %12, align 4
  store i32 %5, ptr %13, align 4
  %17 = zext i1 %6 to i8
  store i8 %17, ptr %14, align 1
  %18 = load ptr, ptr %8, align 8
  %19 = load ptr, ptr %9, align 8
  %20 = load i64, ptr %10, align 8
  %21 = load i64, ptr %11, align 8
  %22 = load i32, ptr %13, align 4
  call void @_ZN5faiss8IndexIVFC2EPNS_5IndexEmmmNS_10MetricTypeE(ptr noundef nonnull align 8 dereferenceable(257) %18, ptr noundef %19, i64 noundef %20, i64 noundef %21, i64 noundef 0, i32 noundef %22)
  store ptr getelementptr inbounds ({ [35 x ptr], [6 x ptr] }, ptr @_ZTVN5faiss23IndexIVFScalarQuantizerE, i32 0, i32 0, i32 2), ptr %18, align 8
  %23 = getelementptr inbounds i8, ptr %18, i64 40
  store ptr getelementptr inbounds ({ [35 x ptr], [6 x ptr] }, ptr @_ZTVN5faiss23IndexIVFScalarQuantizerE, i32 0, i32 1, i32 2), ptr %23, align 8
  %24 = getelementptr inbounds %"struct.faiss::IndexIVFScalarQuantizer", ptr %18, i32 0, i32 1
  %25 = load i64, ptr %10, align 8
  %26 = load i32, ptr %12, align 4
  invoke void @_ZN5faiss15ScalarQuantizerC1EmNS0_13QuantizerTypeE(ptr noundef nonnull align 8 dereferenceable(72) %24, i64 noundef %25, i32 noundef %26)
          to label %27 unwind label %42

27:                                               ; preds = %7
  %28 = getelementptr inbounds %"struct.faiss::IndexIVFScalarQuantizer", ptr %18, i32 0, i32 1
  %29 = getelementptr inbounds %"struct.faiss::Quantizer", ptr %28, i32 0, i32 2
  %30 = load i64, ptr %29, align 8
  %31 = getelementptr inbounds %"struct.faiss::IndexIVF", ptr %18, i32 0, i32 6
  store i64 %30, ptr %31, align 8
  %32 = load i8, ptr %14, align 1
  %33 = trunc i8 %32 to i1
  %34 = getelementptr inbounds %"struct.faiss::IndexIVF", ptr %18, i32 0, i32 10
  %35 = zext i1 %33 to i8
  store i8 %35, ptr %34, align 8
  %36 = getelementptr inbounds %"struct.faiss::IndexIVF", ptr %18, i32 0, i32 6
  %37 = load i64, ptr %36, align 8
  %38 = getelementptr inbounds %"struct.faiss::IndexIVF", ptr %18, i32 0, i32 3
  %39 = load ptr, ptr %38, align 8
  %40 = getelementptr inbounds %"struct.faiss::InvertedLists", ptr %39, i32 0, i32 2
  store i64 %37, ptr %40, align 8
  %41 = getelementptr inbounds %"struct.faiss::Index", ptr %18, i32 0, i32 5
  store i8 0, ptr %41, align 1
  ret void

42:                                               ; preds = %7
  %43 = landingpad { ptr, i32 }
          cleanup
  %44 = extractvalue { ptr, i32 } %43, 0
  store ptr %44, ptr %15, align 8
  %45 = extractvalue { ptr, i32 } %43, 1
  store i32 %45, ptr %16, align 4
  call void @_ZN5faiss8IndexIVFD2Ev(ptr noundef nonnull align 8 dereferenceable(257) %18) #8
  br label %46

46:                                               ; preds = %42
  %47 = load ptr, ptr %15, align 8
  %48 = load i32, ptr %16, align 4
  %49 = insertvalue { ptr, i32 } poison, ptr %47, 0
  %50 = insertvalue { ptr, i32 } %49, i32 %48, 1
  resume { ptr, i32 } %50
}