; Function Attrs: mustprogress uwtable
define void @_ZN5faiss23IndexIVFScalarQuantizerC2EPNS_5IndexEmmNS_15ScalarQuantizer13QuantizerTypeENS_10MetricTypeEb(ptr noundef nonnull align 8 dereferenceable(336) %0, ptr noundef %1, i64 noundef %2, i64 noundef %3, i32 noundef %4, i32 noundef %5, i1 noundef zeroext %6) unnamed_addr #1 align 2 personality ptr @__gxx_personality_v0 {
  tail call void @_ZN5faiss8IndexIVFC2EPNS_5IndexEmmmNS_10MetricTypeE(ptr noundef nonnull align 8 dereferenceable(257) %0, ptr noundef %1, i64 noundef %2, i64 noundef %3, i64 noundef 0, i32 noundef %5)
  store ptr getelementptr inbounds ({ [35 x ptr], [6 x ptr] }, ptr @_ZTVN5faiss23IndexIVFScalarQuantizerE, i64 0, i32 0, i64 2), ptr %0, align 8
  %8 = getelementptr inbounds i8, ptr %0, i64 40
  store ptr getelementptr inbounds ({ [35 x ptr], [6 x ptr] }, ptr @_ZTVN5faiss23IndexIVFScalarQuantizerE, i64 0, i32 1, i64 2), ptr %8, align 8
  %9 = getelementptr inbounds i8, ptr %0, i64 264
  invoke void @_ZN5faiss15ScalarQuantizerC1EmNS0_13QuantizerTypeE(ptr noundef nonnull align 8 dereferenceable(72) %9, i64 noundef %2, i32 noundef %4)
          to label %10 unwind label %20

10:                                               ; preds = %7
  %11 = zext i1 %6 to i8
  %12 = getelementptr inbounds i8, ptr %0, i64 280
  %13 = load i64, ptr %12, align 8
  %14 = getelementptr inbounds i8, ptr %0, i64 152
  store i64 %13, ptr %14, align 8
  %15 = getelementptr inbounds i8, ptr %0, i64 256
  store i8 %11, ptr %15, align 8
  %16 = getelementptr inbounds i8, ptr %0, i64 136
  %17 = load ptr, ptr %16, align 8
  %18 = getelementptr inbounds i8, ptr %17, i64 16
  store i64 %13, ptr %18, align 8
  %19 = getelementptr inbounds i8, ptr %0, i64 25
  store i8 0, ptr %19, align 1
  ret void

20:                                               ; preds = %7
  %21 = landingpad { ptr, i32 }
          cleanup
  tail call void @_ZN5faiss8IndexIVFD2Ev(ptr noundef nonnull align 8 dereferenceable(257) %0) #10
  resume { ptr, i32 } %21
}